; Function Attrs: cold nofree nounwind uwtable
define internal void @midx_report(ptr noundef readonly captures(none) %0, ...) unnamed_addr #14 {
  %2 = alloca [1 x %struct.__va_list_tag], align 16
  call void @llvm.lifetime.start.p0(i64 24, ptr nonnull %2) #22
  store i1 true, ptr @verify_midx_error, align 4
  call void @llvm.va_start.p0(ptr nonnull %2)
  %3 = load ptr, ptr @stderr, align 8, !tbaa !120
  %4 = call i32 @vfprintf(ptr noundef %3, ptr noundef %0, ptr noundef nonnull %2) #26
  %5 = load ptr, ptr @stderr, align 8, !tbaa !120
  %fputc = call i32 @fputc(i32 10, ptr %5)
  call void @llvm.va_end.p0(ptr nonnull %2)
  call void @llvm.lifetime.end.p0(i64 24, ptr nonnull %2) #22
  ret void
}